target datalayout = "e-m:e-p270:32:32-p271:32:32-p272:64:64-i64:64-i128:128-f80:128-n8:16:32:64-S128"
target triple = "x86_64-pc-linux-gnu"

%struct.__va_list_tag = type { i32, i32, ptr, ptr }

; Function Attrs: nounwind uwtable
define internal i32 @set_cn(ptr noundef %0, ...) #0 {
  %2 = alloca i32, align 4
  %3 = alloca ptr, align 8
  %4 = alloca i32, align 4
  %5 = alloca ptr, align 8
  %6 = alloca [1 x %struct.__va_list_tag], align 16
  %7 = alloca i32, align 4
  %8 = alloca ptr, align 8
  %9 = alloca i32, align 4
  store ptr %0, ptr %3, align 8, !tbaa !18
  call void @llvm.lifetime.start.p0(i64 4, ptr %4) #9
  store i32 0, ptr %4, align 4, !tbaa !26
  call void @llvm.lifetime.start.p0(i64 8, ptr %5) #9
  store ptr null, ptr %5, align 8, !tbaa !27
  call void @llvm.lifetime.start.p0(i64 24, ptr %6) #9
  %10 = getelementptr inbounds [1 x %struct.__va_list_tag], ptr %6, i64 0, i64 0
  call void @llvm.va_start.p0(ptr %10)
  %11 = call ptr @X509_NAME_new()
  store ptr %11, ptr %5, align 8, !tbaa !27
  %12 = load ptr, ptr %5, align 8, !tbaa !27
  %13 = icmp eq ptr %12, null
  br i1 %13, label %14, label %15

14:                                               ; preds = %1
  br label %71

15:                                               ; preds = %1
  br label %16

16:                                               ; preds = %63, %15
  br label %17

17:                                               ; preds = %16
  call void @llvm.lifetime.start.p0(i64 4, ptr %7) #9
  call void @llvm.lifetime.start.p0(i64 8, ptr %8) #9
  %18 = getelementptr inbounds [1 x %struct.__va_list_tag], ptr %6, i64 0, i64 0
  %19 = getelementptr inbounds nuw %struct.__va_list_tag, ptr %18, i32 0, i32 0
  %20 = load i32, ptr %19, align 16
  %21 = icmp ule i32 %20, 40
  br i1 %21, label %22, label %27

22:                                               ; preds = %17
  %23 = getelementptr inbounds nuw %struct.__va_list_tag, ptr %18, i32 0, i32 3
  %24 = load ptr, ptr %23, align 16
  %25 = getelementptr i8, ptr %24, i32 %20
  %26 = add i32 %20, 8
  store i32 %26, ptr %19, align 16
  br label %31

27:                                               ; preds = %17
  %28 = getelementptr inbounds nuw %struct.__va_list_tag, ptr %18, i32 0, i32 2
  %29 = load ptr, ptr %28, align 8
  %30 = getelementptr i8, ptr %29, i32 8
  store ptr %30, ptr %28, align 8
  br label %31

31:                                               ; preds = %27, %22
  %32 = phi ptr [ %25, %22 ], [ %29, %27 ]
  %33 = load i32, ptr %32, align 4, !tbaa !26
  store i32 %33, ptr %7, align 4, !tbaa !26
  %34 = load i32, ptr %7, align 4, !tbaa !26
  %35 = icmp eq i32 %34, 0
  br i1 %35, label %36, label %37

36:                                               ; preds = %31
  store i32 4, ptr %9, align 4
  br label %61

37:                                               ; preds = %31
  %38 = getelementptr inbounds [1 x %struct.__va_list_tag], ptr %6, i64 0, i64 0
  %39 = getelementptr inbounds nuw %struct.__va_list_tag, ptr %38, i32 0, i32 0
  %40 = load i32, ptr %39, align 16
  %41 = icmp ule i32 %40, 40
  br i1 %41, label %42, label %47

42:                                               ; preds = %37
  %43 = getelementptr inbounds nuw %struct.__va_list_tag, ptr %38, i32 0, i32 3
  %44 = load ptr, ptr %43, align 16
  %45 = getelementptr i8, ptr %44, i32 %40
  %46 = add i32 %40, 8
  store i32 %46, ptr %39, align 16
  br label %51

47:                                               ; preds = %37
  %48 = getelementptr inbounds nuw %struct.__va_list_tag, ptr %38, i32 0, i32 2
  %49 = load ptr, ptr %48, align 8
  %50 = getelementptr i8, ptr %49, i32 8
  store ptr %50, ptr %48, align 8
  br label %51

51:                                               ; preds = %47, %42
  %52 = phi ptr [ %45, %42 ], [ %49, %47 ]
  %53 = load ptr, ptr %52, align 8, !tbaa !17
  store ptr %53, ptr %8, align 8, !tbaa !17
  %54 = load ptr, ptr %5, align 8, !tbaa !27
  %55 = load i32, ptr %7, align 4, !tbaa !26
  %56 = load ptr, ptr %8, align 8, !tbaa !17
  %57 = call i32 @X509_NAME_add_entry_by_NID(ptr noundef %54, i32 noundef %55, i32 noundef 4097, ptr noundef %56, i32 noundef -1, i32 noundef -1, i32 noundef 1)
  %58 = icmp ne i32 %57, 0
  br i1 %58, label %60, label %59

59:                                               ; preds = %51
  store i32 2, ptr %9, align 4
  br label %61

60:                                               ; preds = %51
  store i32 0, ptr %9, align 4
  br label %61

61:                                               ; preds = %59, %60, %36
  call void @llvm.lifetime.end.p0(i64 8, ptr %8) #9
  call void @llvm.lifetime.end.p0(i64 4, ptr %7) #9
  %62 = load i32, ptr %9, align 4
  switch i32 %62, label %75 [
    i32 0, label %63
    i32 4, label %64
    i32 2, label %71
  ]

63:                                               ; preds = %61
  br label %16

64:                                               ; preds = %61
  %65 = load ptr, ptr %3, align 8, !tbaa !18
  %66 = load ptr, ptr %5, align 8, !tbaa !27
  %67 = call i32 @X509_set_subject_name(ptr noundef %65, ptr noundef %66)
  %68 = icmp ne i32 %67, 0
  br i1 %68, label %70, label %69

69:                                               ; preds = %64
  br label %71

70:                                               ; preds = %64
  store i32 1, ptr %4, align 4, !tbaa !26
  br label %71

71:                                               ; preds = %70, %61, %69, %14
  %72 = load ptr, ptr %5, align 8, !tbaa !27
  call void @X509_NAME_free(ptr noundef %72)
  %73 = getelementptr inbounds [1 x %struct.__va_list_tag], ptr %6, i64 0, i64 0
  call void @llvm.va_end.p0(ptr %73)
  %74 = load i32, ptr %4, align 4, !tbaa !26
  store i32 %74, ptr %2, align 4
  store i32 1, ptr %9, align 4
  br label %75

75:                                               ; preds = %71, %61
  call void @llvm.lifetime.end.p0(i64 24, ptr %6) #9
  call void @llvm.lifetime.end.p0(i64 8, ptr %5) #9
  call void @llvm.lifetime.end.p0(i64 4, ptr %4) #9
  %76 = load i32, ptr %2, align 4
  ret i32 %76
}