; Function Attrs: nounwind uwtable
define internal range(i32 0, 2) i32 @set_cn(ptr noundef %0, ...) unnamed_addr #0 {
  %2 = alloca [1 x %struct.__va_list_tag], align 16
  call void @llvm.lifetime.start.p0(i64 24, ptr nonnull %2) #11
  call void @llvm.va_start.p0(ptr nonnull %2)
  %3 = call ptr @X509_NAME_new() #11
  %4 = icmp eq ptr %3, null
  br i1 %4, label %.thread17, label %.preheader

.preheader:                                       ; preds = %1
  %5 = getelementptr inbounds nuw i8, ptr %2, i64 8
  %6 = getelementptr inbounds nuw i8, ptr %2, i64 16
  br label %7

7:                                                ; preds = %.preheader, %33
  %8 = load i32, ptr %2, align 16
  %9 = icmp ult i32 %8, 41
  br i1 %9, label %10, label %15

10:                                               ; preds = %7
  %11 = load ptr, ptr %6, align 16
  %12 = zext nneg i32 %8 to i64
  %13 = getelementptr i8, ptr %11, i64 %12
  %14 = add nuw nsw i32 %8, 8
  store i32 %14, ptr %2, align 16
  br label %18

15:                                               ; preds = %7
  %16 = load ptr, ptr %5, align 8
  %17 = getelementptr i8, ptr %16, i64 8
  store ptr %17, ptr %5, align 8
  br label %18

18:                                               ; preds = %15, %10
  %19 = phi i32 [ %14, %10 ], [ %8, %15 ]
  %20 = phi ptr [ %13, %10 ], [ %16, %15 ]
  %21 = load i32, ptr %20, align 4, !tbaa !15
  %22 = icmp eq i32 %21, 0
  br i1 %22, label %37, label %23

23:                                               ; preds = %18
  %24 = icmp ult i32 %19, 41
  br i1 %24, label %25, label %30

25:                                               ; preds = %23
  %26 = load ptr, ptr %6, align 16
  %27 = zext nneg i32 %19 to i64
  %28 = getelementptr i8, ptr %26, i64 %27
  %29 = add nuw nsw i32 %19, 8
  store i32 %29, ptr %2, align 16
  br label %33

30:                                               ; preds = %23
  %31 = load ptr, ptr %5, align 8
  %32 = getelementptr i8, ptr %31, i64 8
  store ptr %32, ptr %5, align 8
  br label %33

33:                                               ; preds = %30, %25
  %34 = phi ptr [ %28, %25 ], [ %31, %30 ]
  %35 = load ptr, ptr %34, align 8, !tbaa !17
  %36 = call i32 @X509_NAME_add_entry_by_NID(ptr noundef nonnull %3, i32 noundef %21, i32 noundef 4097, ptr noundef %35, i32 noundef -1, i32 noundef -1, i32 noundef 1) #11
  %.not = icmp eq i32 %36, 0
  br i1 %.not, label %.thread17, label %7

37:                                               ; preds = %18
  %38 = call i32 @X509_set_subject_name(ptr noundef %0, ptr noundef nonnull %3) #11
  %.not15 = icmp ne i32 %38, 0
  %spec.select = zext i1 %.not15 to i32
  br label %.thread17

.thread17:                                        ; preds = %33, %1, %37
  %.011 = phi i32 [ 0, %1 ], [ %spec.select, %37 ], [ 0, %33 ]
  call void @X509_NAME_free(ptr noundef %3) #11
  call void @llvm.va_end.p0(ptr nonnull %2)
  call void @llvm.lifetime.end.p0(i64 24, ptr nonnull %2) #11
  ret i32 %.011
}